target datalayout = "e-m:e-p270:32:32-p271:32:32-p272:64:64-i64:64-i128:128-f80:128-n8:16:32:64-S128"
target triple = "x86_64-pc-linux-gnu"

%struct.Curl_easy = type { i32, i64, i64, ptr, %struct.Curl_llist_node, %struct.Curl_llist_node, i32, i32, %struct.Curl_message, %struct.easy_pollset, %struct.Names, ptr, ptr, ptr, %struct.SingleRequest, %struct.UserDefined, ptr, ptr, %struct.Progress, %struct.UrlState, ptr, %struct.PureInfo, %struct.curl_tlssessioninfo }
%struct.Curl_llist_node = type { ptr, ptr, ptr, ptr }
%struct.Curl_message = type { %struct.Curl_llist_node, %struct.CURLMsg }
%struct.CURLMsg = type { i32, ptr, %union.anon }
%union.anon = type { ptr }
%struct.easy_pollset = type { [5 x i32], i32, [5 x i8] }
%struct.Names = type { ptr, i32 }
%struct.SingleRequest = type <{ i64, i64, i64, i64, %struct.curltime, i32, i32, i32, i32, i64, i32, i32, i32, i32, ptr, ptr, %struct.bufq, i64, i64, ptr, ptr, %union.anon.0, ptr, i8, i32, [3 x i8] }>
%struct.curltime = type { i64, i32 }
%struct.bufq = type { ptr, ptr, ptr, ptr, i64, i64, i64, i32 }
%union.anon.0 = type { ptr }
%struct.UserDefined = type <{ ptr, ptr, ptr, ptr, ptr, ptr, i16, [6 x i8], i64, i64, i64, ptr, ptr, i64, i16, i16, [4 x i8], ptr, ptr, ptr, ptr, ptr, ptr, ptr, ptr, ptr, ptr, ptr, ptr, ptr, ptr, ptr, ptr, ptr, ptr, ptr, ptr, ptr, ptr, ptr, i32, i32, i32, i32, i32, [4 x i8], i64, i64, i64, i64, i64, i64, i64, i64, ptr, ptr, %struct.curl_mimepart, ptr, ptr, i64, i8, i8, i8, [5 x i8], %struct.ssl_config_data, %struct.ssl_config_data, ptr, i16, i8, i8, [4 x i8], %struct.ssl_general_config, i32, i32, i32, [4 x i8], ptr, ptr, i8, [7 x i8], i64, i8, i8, i8, i8, i32, ptr, ptr, ptr, i8, i8, [2 x i8], i32, [63 x ptr], [8 x ptr], i32, i32, i32, [4 x i8], ptr, ptr, ptr, ptr, ptr, i8, [3 x i8], i32, i32, i32, i64, %struct.Curl_data_priority, ptr, ptr, i64, ptr, i64, ptr, ptr, ptr, i8, [3 x i8], i32, i8, i8, i64, [6 x i8] }>
%struct.curl_mimepart = type { ptr, ptr, i32, i32, ptr, ptr, ptr, ptr, ptr, ptr, ptr, ptr, ptr, ptr, ptr, i64, %struct.mime_state, ptr, %struct.mime_encoder_state, i64 }
%struct.mime_state = type { i32, ptr, i64 }
%struct.mime_encoder_state = type { i64, i64, i64, [256 x i8] }
%struct.ssl_config_data = type { %struct.ssl_primary_config, i64, ptr, ptr, ptr, ptr, ptr, ptr, ptr, i16 }
%struct.ssl_primary_config = type { ptr, ptr, ptr, ptr, ptr, ptr, ptr, ptr, ptr, ptr, ptr, ptr, i8, i32, i8, i8 }
%struct.ssl_general_config = type { i64, i32 }
%struct.Curl_data_priority = type { ptr, ptr, i32, i8 }
%struct.Progress = type { i64, %struct.pgrs_dir, %struct.pgrs_dir, i64, i64, i32, i32, i64, i64, i64, i64, i64, i64, i64, i64, i64, %struct.curltime, %struct.curltime, %struct.curltime, %struct.curltime, [6 x i64], [6 x %struct.curltime], i32, i8 }
%struct.pgrs_dir = type { i64, i64, i64, %struct.pgrs_measure }
%struct.pgrs_measure = type { %struct.curltime, i64 }
%struct.UrlState = type { %struct.curltime, i64, i64, %struct.dynbuf, ptr, i64, ptr, i32, i32, i32, ptr, i64, i32, i64, i32, ptr, %struct.digestdata, %struct.digestdata, %struct.auth, %struct.auth, %struct.Curl_async, ptr, %struct.curltime, %struct.Curl_tree, %struct.Curl_llist, [15 x %struct.time_node], ptr, ptr, i64, i64, %struct.Curl_data_priority, ptr, ptr, ptr, %struct.urlpieces, ptr, ptr, ptr, ptr, ptr, i64, %struct.dynbuf, %struct.Curl_llist, [2 x %struct.curl_header], ptr, i32, ptr, ptr, %struct.store_netrc, %struct.dynamically_allocated_data, i8, i8, i8, i8, i32 }
%struct.digestdata = type { ptr, ptr, ptr, ptr, ptr, ptr, i32, i8, i8 }
%struct.auth = type { i64, i64, i64, i8 }
%struct.Curl_async = type { ptr, ptr, ptr, ptr, i32, i32, i8 }
%struct.Curl_tree = type { ptr, ptr, ptr, ptr, %struct.curltime, ptr }
%struct.time_node = type { %struct.Curl_llist_node, %struct.curltime, i32 }
%struct.urlpieces = type { ptr, ptr, ptr, ptr, ptr, ptr, ptr, ptr }
%struct.dynbuf = type { ptr, i64, i64, i64 }
%struct.Curl_llist = type { ptr, ptr, ptr, i64 }
%struct.curl_header = type { ptr, ptr, i64, i64, i32, ptr }
%struct.store_netrc = type { %struct.dynbuf, ptr, i8 }
%struct.dynamically_allocated_data = type { ptr, ptr, ptr, ptr, ptr, ptr, ptr, ptr, ptr, ptr, ptr, ptr, ptr }
%struct.PureInfo = type { i32, i32, i32, i64, i64, i64, i64, i64, ptr, ptr, i64, i32, %struct.ip_quadruple, i32, ptr, i32, %struct.curl_certinfo, i32, i8 }
%struct.ip_quadruple = type { [46 x i8], [46 x i8], i32, i32 }
%struct.curl_certinfo = type { i32, ptr }
%struct.curl_tlssessioninfo = type { i32, ptr }

@.str.1 = private unnamed_addr constant [25 x i8] c"CONNECT_ONLY is required\00", align 1
@.str.2 = private unnamed_addr constant [28 x i8] c"Failed to get recent socket\00", align 1

; Function Attrs: nounwind uwtable
define internal i32 @easy_connection(ptr noundef %0, ptr noundef %1) #4 {
  %3 = alloca i32, align 4
  %4 = alloca ptr, align 8
  %5 = alloca ptr, align 8
  %6 = alloca i32, align 4
  %7 = alloca i32, align 4
  store ptr %0, ptr %4, align 8, !tbaa !20
  store ptr %1, ptr %5, align 8, !tbaa !142
  call void @llvm.lifetime.start.p0(i64 4, ptr %6) #10
  %8 = load ptr, ptr %4, align 8, !tbaa !20
  %9 = icmp ne ptr %8, null
  br i1 %9, label %11, label %10

10:                                               ; preds = %2
  store i32 43, ptr %3, align 4
  store i32 1, ptr %7, align 4
  br label %28

11:                                               ; preds = %2
  %12 = load ptr, ptr %4, align 8, !tbaa !20
  %13 = getelementptr inbounds nuw %struct.Curl_easy, ptr %12, i32 0, i32 15
  %14 = getelementptr inbounds nuw %struct.UserDefined, ptr %13, i32 0, i32 123
  %15 = load i8, ptr %14, align 1, !tbaa !144
  %16 = icmp ne i8 %15, 0
  br i1 %16, label %19, label %17

17:                                               ; preds = %11
  %18 = load ptr, ptr %4, align 8, !tbaa !20
  call void (ptr, ptr, ...) @Curl_failf(ptr noundef %18, ptr noundef @.str.1)
  store i32 1, ptr %3, align 4
  store i32 1, ptr %7, align 4
  br label %28

19:                                               ; preds = %11
  %20 = load ptr, ptr %4, align 8, !tbaa !20
  %21 = load ptr, ptr %5, align 8, !tbaa !142
  %22 = call i32 @Curl_getconnectinfo(ptr noundef %20, ptr noundef %21)
  store i32 %22, ptr %6, align 4, !tbaa !8
  %23 = load i32, ptr %6, align 4, !tbaa !8
  %24 = icmp eq i32 %23, -1
  br i1 %24, label %25, label %27

25:                                               ; preds = %19
  %26 = load ptr, ptr %4, align 8, !tbaa !20
  call void (ptr, ptr, ...) @Curl_failf(ptr noundef %26, ptr noundef @.str.2)
  store i32 1, ptr %3, align 4
  store i32 1, ptr %7, align 4
  br label %28

27:                                               ; preds = %19
  store i32 0, ptr %3, align 4
  store i32 1, ptr %7, align 4
  br label %28

28:                                               ; preds = %27, %25, %17, %10
  call void @llvm.lifetime.end.p0(i64 4, ptr %6) #10
  %29 = load i32, ptr %3, align 4
  ret i32 %29
}

; Function Attrs: nounwind uwtable
define dso_local i32 @curl_easy_recv(ptr noundef %0, ptr noundef %1, i64 noundef %2, ptr noundef %3) #4 {
  %5 = alloca i32, align 4
  %6 = alloca ptr, align 8
  %7 = alloca ptr, align 8
  %8 = alloca i64, align 8
  %9 = alloca ptr, align 8
  %10 = alloca i32, align 4
  %11 = alloca i64, align 8
  %12 = alloca ptr, align 8
  %13 = alloca ptr, align 8
  %14 = alloca i32, align 4
  store ptr %0, ptr %6, align 8, !tbaa !14
  store ptr %1, ptr %7, align 8, !tbaa !14
  store i64 %2, ptr %8, align 8, !tbaa !4
  store ptr %3, ptr %9, align 8, !tbaa !139
  call void @llvm.lifetime.start.p0(i64 4, ptr %10) #10
  call void @llvm.lifetime.start.p0(i64 8, ptr %11) #10
  call void @llvm.lifetime.start.p0(i64 8, ptr %12) #10
  call void @llvm.lifetime.start.p0(i64 8, ptr %13) #10
  %15 = load ptr, ptr %6, align 8, !tbaa !14
  store ptr %15, ptr %13, align 8, !tbaa !20
  %16 = load ptr, ptr %13, align 8, !tbaa !20
  %17 = call zeroext i1 @Curl_is_in_callback(ptr noundef %16)
  br i1 %17, label %18, label %19

18:                                               ; preds = %4
  store i32 93, ptr %5, align 4
  store i32 1, ptr %14, align 4
  br label %47

19:                                               ; preds = %4
  %20 = load ptr, ptr %13, align 8, !tbaa !20
  %21 = call i32 @easy_connection(ptr noundef %20, ptr noundef %12)
  store i32 %21, ptr %10, align 4, !tbaa !8
  %22 = load i32, ptr %10, align 4, !tbaa !8
  %23 = icmp ne i32 %22, 0
  br i1 %23, label %24, label %26

24:                                               ; preds = %19
  %25 = load i32, ptr %10, align 4, !tbaa !8
  store i32 %25, ptr %5, align 4
  store i32 1, ptr %14, align 4
  br label %47

26:                                               ; preds = %19
  %27 = load ptr, ptr %13, align 8, !tbaa !20
  %28 = getelementptr inbounds nuw %struct.Curl_easy, ptr %27, i32 0, i32 3
  %29 = load ptr, ptr %28, align 8, !tbaa !132
  %30 = icmp ne ptr %29, null
  br i1 %30, label %34, label %31

31:                                               ; preds = %26
  %32 = load ptr, ptr %13, align 8, !tbaa !20
  %33 = load ptr, ptr %12, align 8, !tbaa !141
  call void @Curl_attach_connection(ptr noundef %32, ptr noundef %33)
  br label %34

34:                                               ; preds = %31, %26
  %35 = load ptr, ptr %9, align 8, !tbaa !139
  store i64 0, ptr %35, align 8, !tbaa !4
  %36 = load ptr, ptr %13, align 8, !tbaa !20
  %37 = load ptr, ptr %7, align 8, !tbaa !14
  %38 = load i64, ptr %8, align 8, !tbaa !4
  %39 = call i32 @Curl_conn_recv(ptr noundef %36, i32 noundef 0, ptr noundef %37, i64 noundef %38, ptr noundef %11)
  store i32 %39, ptr %10, align 4, !tbaa !8
  %40 = load i32, ptr %10, align 4, !tbaa !8
  %41 = icmp ne i32 %40, 0
  br i1 %41, label %42, label %44

42:                                               ; preds = %34
  %43 = load i32, ptr %10, align 4, !tbaa !8
  store i32 %43, ptr %5, align 4
  store i32 1, ptr %14, align 4
  br label %47

44:                                               ; preds = %34
  %45 = load i64, ptr %11, align 8, !tbaa !4
  %46 = load ptr, ptr %9, align 8, !tbaa !139
  store i64 %45, ptr %46, align 8, !tbaa !4
  store i32 0, ptr %5, align 4
  store i32 1, ptr %14, align 4
  br label %47

47:                                               ; preds = %44, %42, %24, %18
  call void @llvm.lifetime.end.p0(i64 8, ptr %13) #10
  call void @llvm.lifetime.end.p0(i64 8, ptr %12) #10
  call void @llvm.lifetime.end.p0(i64 8, ptr %11) #10
  call void @llvm.lifetime.end.p0(i64 4, ptr %10) #10
  %48 = load i32, ptr %5, align 4
  ret i32 %48
}