; Function Attrs: nounwind uwtable
define dso_local i32 @curl_easy_recv(ptr noundef %0, ptr noundef %1, i64 noundef %2, ptr noundef writeonly captures(none) %3) local_unnamed_addr #5 {
  %5 = alloca i64, align 8
  %6 = alloca ptr, align 8
  call void @llvm.lifetime.start.p0(i64 8, ptr nonnull %5) #12
  call void @llvm.lifetime.start.p0(i64 8, ptr nonnull %6) #12
  %7 = tail call zeroext i1 @Curl_is_in_callback(ptr noundef %0) #12
  br i1 %7, label %easy_connection.exit.thread, label %8

8:                                                ; preds = %4
  %.not.i = icmp eq ptr %0, null
  br i1 %.not.i, label %easy_connection.exit.thread, label %9

9:                                                ; preds = %8
  %10 = getelementptr inbounds nuw i8, ptr %0, i64 2561
  %11 = load i8, ptr %10, align 1, !tbaa !130
  %.not8.i = icmp eq i8 %11, 0
  br i1 %.not8.i, label %.sink.split.i, label %12

12:                                               ; preds = %9
  %13 = call i32 @Curl_getconnectinfo(ptr noundef nonnull %0, ptr noundef nonnull %6) #12
  %14 = icmp eq i32 %13, -1
  br i1 %14, label %.sink.split.i, label %easy_connection.exit

.sink.split.i:                                    ; preds = %12, %9
  %.str.2.sink.i = phi ptr [ @.str.1, %9 ], [ @.str.2, %12 ]
  call void (ptr, ptr, ...) @Curl_failf(ptr noundef nonnull %0, ptr noundef nonnull %.str.2.sink.i) #12
  br label %easy_connection.exit.thread

easy_connection.exit:                             ; preds = %12
  %15 = getelementptr inbounds nuw i8, ptr %0, i64 24
  %16 = load ptr, ptr %15, align 8, !tbaa !125
  %.not16 = icmp eq ptr %16, null
  br i1 %.not16, label %17, label %19

17:                                               ; preds = %easy_connection.exit
  %18 = load ptr, ptr %6, align 8, !tbaa !131
  call void @Curl_attach_connection(ptr noundef nonnull %0, ptr noundef %18) #12
  br label %19

19:                                               ; preds = %17, %easy_connection.exit
  store i64 0, ptr %3, align 8, !tbaa !101
  %20 = call i32 @Curl_conn_recv(ptr noundef nonnull %0, i32 noundef 0, ptr noundef %1, i64 noundef %2, ptr noundef nonnull %5) #12
  %.not17 = icmp eq i32 %20, 0
  br i1 %.not17, label %21, label %easy_connection.exit.thread

21:                                               ; preds = %19
  %22 = load i64, ptr %5, align 8, !tbaa !101
  store i64 %22, ptr %3, align 8, !tbaa !101
  br label %easy_connection.exit.thread

easy_connection.exit.thread:                      ; preds = %.sink.split.i, %8, %19, %4, %21
  %.0 = phi i32 [ 0, %21 ], [ 93, %4 ], [ %20, %19 ], [ 1, %.sink.split.i ], [ 43, %8 ]
  call void @llvm.lifetime.end.p0(i64 8, ptr nonnull %6) #12
  call void @llvm.lifetime.end.p0(i64 8, ptr nonnull %5) #12
  ret i32 %.0
}